; Function Attrs: nounwind uwtable
define noalias nonnull ptr @l_IO_withStdin___at___private_Lake_Build_Target_Fetch_0__Lake_PartialBuildKey_fetchInCoreAux___spec__4(ptr noundef readnone captures(none) %0, ptr noundef readnone captures(none) %1, ptr noundef readnone captures(none) %2) local_unnamed_addr #1 {
  tail call void @lean_inc_heartbeat() #5
  %4 = tail call noalias ptr @mi_malloc_small(i64 noundef 24) #5
  %5 = icmp eq ptr %4, null
  br i1 %5, label %6, label %lean_alloc_closure.exit

6:                                                ; preds = %3
  tail call void @lean_internal_panic_out_of_memory() #6
  unreachable

lean_alloc_closure.exit:                          ; preds = %3
  %7 = getelementptr inbounds nuw i8, ptr %4, i64 4
  store i32 1, ptr %4, align 4, !tbaa !4
  store i32 -184549352, ptr %7, align 4
  %8 = getelementptr inbounds nuw i8, ptr %4, i64 8
  store ptr @l_IO_withStdin___at___private_Lake_Build_Target_Fetch_0__Lake_PartialBuildKey_fetchInCoreAux___spec__4___rarg, ptr %8, align 8, !tbaa !10
  %9 = getelementptr inbounds nuw i8, ptr %4, i64 16
  store i16 8, ptr %9, align 8, !tbaa !15
  %10 = getelementptr inbounds nuw i8, ptr %4, i64 18
  store i16 0, ptr %10, align 2, !tbaa !15
  ret ptr %4
}